target datalayout = "e-m:e-p270:32:32-p271:32:32-p272:64:64-i64:64-i128:128-f80:128-n8:16:32:64-S128"
target triple = "x86_64-pc-linux-gnu"

%struct.SurfaceDataRasInfo = type { %struct.SurfaceDataBounds, ptr, i32, i32, i32, i32, ptr, ptr, ptr, ptr, ptr, ptr, i32, %union.anon.0 }
%struct.SurfaceDataBounds = type { i32, i32, i32, i32 }
%union.anon.0 = type { ptr, [56 x i8] }

; Function Attrs: nounwind uwtable
define hidden void @ByteGrayToIntArgbScaleConvert(ptr noundef %0, ptr noundef %1, i32 noundef %2, i32 noundef %3, i32 noundef %4, i32 noundef %5, i32 noundef %6, i32 noundef %7, i32 noundef %8, ptr noundef %9, ptr noundef %10, ptr noundef %11, ptr noundef %12) #1 {
  %14 = alloca ptr, align 8
  %15 = alloca ptr, align 8
  %16 = alloca i32, align 4
  %17 = alloca i32, align 4
  %18 = alloca i32, align 4
  %19 = alloca i32, align 4
  %20 = alloca i32, align 4
  %21 = alloca i32, align 4
  %22 = alloca i32, align 4
  %23 = alloca ptr, align 8
  %24 = alloca ptr, align 8
  %25 = alloca ptr, align 8
  %26 = alloca ptr, align 8
  %27 = alloca ptr, align 8
  %28 = alloca ptr, align 8
  %29 = alloca i32, align 4
  %30 = alloca i32, align 4
  %31 = alloca i32, align 4
  %32 = alloca i32, align 4
  %33 = alloca i32, align 4
  %34 = alloca i32, align 4
  %35 = alloca i32, align 4
  store ptr %0, ptr %14, align 8
  store ptr %1, ptr %15, align 8
  store i32 %2, ptr %16, align 4
  store i32 %3, ptr %17, align 4
  store i32 %4, ptr %18, align 4
  store i32 %5, ptr %19, align 4
  store i32 %6, ptr %20, align 4
  store i32 %7, ptr %21, align 4
  store i32 %8, ptr %22, align 4
  store ptr %9, ptr %23, align 8
  store ptr %10, ptr %24, align 8
  store ptr %11, ptr %25, align 8
  store ptr %12, ptr %26, align 8
  br label %36

36:                                               ; preds = %13
  %37 = load ptr, ptr %15, align 8
  store ptr %37, ptr %28, align 8
  %38 = load ptr, ptr %23, align 8
  %39 = getelementptr inbounds %struct.SurfaceDataRasInfo, ptr %38, i32 0, i32 4
  %40 = load i32, ptr %39, align 8
  store i32 %40, ptr %29, align 4
  %41 = load ptr, ptr %24, align 8
  %42 = getelementptr inbounds %struct.SurfaceDataRasInfo, ptr %41, i32 0, i32 4
  %43 = load i32, ptr %42, align 8
  store i32 %43, ptr %30, align 4
  %44 = load i32, ptr %16, align 4
  %45 = mul i32 %44, 4
  %46 = load i32, ptr %30, align 4
  %47 = sub i32 %46, %45
  store i32 %47, ptr %30, align 4
  br label %48

48:                                               ; preds = %108, %36
  %49 = load i32, ptr %16, align 4
  store i32 %49, ptr %31, align 4
  %50 = load i32, ptr %18, align 4
  store i32 %50, ptr %32, align 4
  %51 = load ptr, ptr %14, align 8
  %52 = ptrtoint ptr %51 to i64
  %53 = load i32, ptr %19, align 4
  %54 = load i32, ptr %22, align 4
  %55 = ashr i32 %53, %54
  %56 = sext i32 %55 to i64
  %57 = load i32, ptr %29, align 4
  %58 = sext i32 %57 to i64
  %59 = mul nsw i64 %56, %58
  %60 = add nsw i64 %52, %59
  %61 = inttoptr i64 %60 to ptr
  store ptr %61, ptr %27, align 8
  br label %62

62:                                               ; preds = %94, %48
  %63 = load i32, ptr %32, align 4
  %64 = load i32, ptr %22, align 4
  %65 = ashr i32 %63, %64
  store i32 %65, ptr %33, align 4
  br label %66

66:                                               ; preds = %62
  br label %67

67:                                               ; preds = %66
  %68 = load ptr, ptr %27, align 8
  %69 = load i32, ptr %33, align 4
  %70 = sext i32 %69 to i64
  %71 = getelementptr inbounds i8, ptr %68, i64 %70
  %72 = load i8, ptr %71, align 1
  %73 = zext i8 %72 to i32
  store i32 %73, ptr %35, align 4
  %74 = load i32, ptr %35, align 4
  %75 = or i32 65280, %74
  %76 = shl i32 %75, 8
  %77 = load i32, ptr %35, align 4
  %78 = or i32 %76, %77
  %79 = shl i32 %78, 8
  %80 = load i32, ptr %35, align 4
  %81 = or i32 %79, %80
  store i32 %81, ptr %34, align 4
  br label %82

82:                                               ; preds = %67
  %83 = load i32, ptr %34, align 4
  %84 = load ptr, ptr %28, align 8
  %85 = getelementptr inbounds i32, ptr %84, i64 0
  store i32 %83, ptr %85, align 4
  br label %86

86:                                               ; preds = %82
  %87 = load ptr, ptr %28, align 8
  %88 = ptrtoint ptr %87 to i64
  %89 = add nsw i64 %88, 4
  %90 = inttoptr i64 %89 to ptr
  store ptr %90, ptr %28, align 8
  %91 = load i32, ptr %20, align 4
  %92 = load i32, ptr %32, align 4
  %93 = add nsw i32 %92, %91
  store i32 %93, ptr %32, align 4
  br label %94

94:                                               ; preds = %86
  %95 = load i32, ptr %31, align 4
  %96 = add i32 %95, -1
  store i32 %96, ptr %31, align 4
  %97 = icmp ugt i32 %96, 0
  br i1 %97, label %62, label %98, !llvm.loop !23

98:                                               ; preds = %94
  %99 = load ptr, ptr %28, align 8
  %100 = ptrtoint ptr %99 to i64
  %101 = load i32, ptr %30, align 4
  %102 = sext i32 %101 to i64
  %103 = add nsw i64 %100, %102
  %104 = inttoptr i64 %103 to ptr
  store ptr %104, ptr %28, align 8
  %105 = load i32, ptr %21, align 4
  %106 = load i32, ptr %19, align 4
  %107 = add nsw i32 %106, %105
  store i32 %107, ptr %19, align 4
  br label %108

108:                                              ; preds = %98
  %109 = load i32, ptr %17, align 4
  %110 = add i32 %109, -1
  store i32 %110, ptr %17, align 4
  %111 = icmp ugt i32 %110, 0
  br i1 %111, label %48, label %112, !llvm.loop !24

112:                                              ; preds = %108
  br label %113

113:                                              ; preds = %112
  ret void
}