; Function Attrs: nofree norecurse nosync nounwind memory(readwrite, inaccessiblemem: none) uwtable
define hidden void @ByteGrayToIntArgbScaleConvert(ptr noundef %0, ptr noundef %1, i32 noundef %2, i32 noundef %3, i32 noundef %4, i32 noundef %5, i32 noundef %6, i32 noundef %7, i32 noundef %8, ptr nocapture noundef readonly %9, ptr nocapture noundef readonly %10, ptr nocapture readnone %11, ptr nocapture readnone %12) #1 {
  %14 = getelementptr inbounds i8, ptr %9, i64 32
  %15 = load i32, ptr %14, align 8
  %16 = getelementptr inbounds i8, ptr %10, i64 32
  %17 = load i32, ptr %16, align 8
  %18 = shl i32 %2, 2
  %19 = sub i32 %17, %18
  %20 = sext i32 %19 to i64
  %21 = ptrtoint ptr %0 to i64
  %22 = sext i32 %15 to i64
  br label %23

23:                                               ; preds = %42, %13
  %.029 = phi ptr [ %1, %13 ], [ %44, %42 ]
  %.028 = phi i32 [ %5, %13 ], [ %45, %42 ]
  %.0 = phi i32 [ %3, %13 ], [ %46, %42 ]
  %24 = ashr i32 %.028, %8
  %25 = sext i32 %24 to i64
  %26 = mul nsw i64 %25, %22
  %27 = add nsw i64 %26, %21
  %28 = inttoptr i64 %27 to ptr
  br label %29

29:                                               ; preds = %29, %23
  %.031 = phi i32 [ %2, %23 ], [ %41, %29 ]
  %.030 = phi i32 [ %4, %23 ], [ %40, %29 ]
  %.1 = phi ptr [ %.029, %23 ], [ %39, %29 ]
  %30 = ashr i32 %.030, %8
  %31 = sext i32 %30 to i64
  %32 = getelementptr inbounds i8, ptr %28, i64 %31
  %33 = load i8, ptr %32, align 1
  %34 = zext i8 %33 to i32
  %35 = mul nuw nsw i32 %34, 65793
  %36 = or disjoint i32 %35, -16777216
  store i32 %36, ptr %.1, align 4
  %37 = ptrtoint ptr %.1 to i64
  %38 = add nsw i64 %37, 4
  %39 = inttoptr i64 %38 to ptr
  %40 = add nsw i32 %.030, %6
  %41 = add i32 %.031, -1
  %.not = icmp eq i32 %41, 0
  br i1 %.not, label %42, label %29, !llvm.loop !22

42:                                               ; preds = %29
  %43 = add nsw i64 %38, %20
  %44 = inttoptr i64 %43 to ptr
  %45 = add nsw i32 %.028, %7
  %46 = add i32 %.0, -1
  %.not33 = icmp eq i32 %46, 0
  br i1 %.not33, label %47, label %23, !llvm.loop !23

47:                                               ; preds = %42
  ret void
}